; Function Attrs: nounwind uwtable
define dso_local range(i32 -1, 1) i32 @PyPickleBuffer_Release(ptr noundef %0) local_unnamed_addr #0 {
  %2 = getelementptr i8, ptr %0, i64 8
  %.val4 = load ptr, ptr %2, align 8, !tbaa !26
  %.not = icmp eq ptr %.val4, @PyPickleBuffer_Type
  br i1 %.not, label %8, label %3

3:                                                ; preds = %1
  %4 = load ptr, ptr @PyExc_TypeError, align 8, !tbaa !27
  %5 = getelementptr inbounds nuw i8, ptr %.val4, i64 24
  %6 = load ptr, ptr %5, align 8, !tbaa !28
  %7 = tail call ptr (ptr, ptr, ...) @PyErr_Format(ptr noundef %4, ptr noundef nonnull @.str, ptr noundef %6) #5
  br label %10

8:                                                ; preds = %1
  %9 = getelementptr inbounds nuw i8, ptr %0, i64 16
  tail call void @PyBuffer_Release(ptr noundef nonnull %9) #5
  br label %10

10:                                               ; preds = %8, %3
  %.0 = phi i32 [ 0, %8 ], [ -1, %3 ]
  ret i32 %.0
}